target datalayout = "e-m:e-p270:32:32-p271:32:32-p272:64:64-i64:64-i128:128-f80:128-n8:16:32:64-S128"
target triple = "x86_64-pc-linux-gnu"

; Function Attrs: mustprogress nounwind uwtable
define hidden noundef ptr @_ZN23JvmtiManageCapabilities7excludeEPK17jvmtiCapabilitiesS2_PS0_(ptr noundef %0, ptr noundef %1, ptr noundef %2) #1 align 2 {
  %4 = alloca ptr, align 8
  %5 = alloca ptr, align 8
  %6 = alloca ptr, align 8
  %7 = alloca ptr, align 8
  %8 = alloca ptr, align 8
  %9 = alloca ptr, align 8
  %10 = alloca i32, align 4
  store ptr %0, ptr %4, align 8
  store ptr %1, ptr %5, align 8
  store ptr %2, ptr %6, align 8
  %11 = load ptr, ptr %4, align 8
  store ptr %11, ptr %7, align 8
  %12 = load ptr, ptr %5, align 8
  store ptr %12, ptr %8, align 8
  %13 = load ptr, ptr %6, align 8
  store ptr %13, ptr %9, align 8
  store i32 0, ptr %10, align 4
  br label %14

14:                                               ; preds = %33, %3
  %15 = load i32, ptr %10, align 4
  %16 = icmp slt i32 %15, 6
  br i1 %16, label %17, label %36

17:                                               ; preds = %14
  %18 = load ptr, ptr %7, align 8
  %19 = getelementptr inbounds i8, ptr %18, i32 1
  store ptr %19, ptr %7, align 8
  %20 = load i8, ptr %18, align 1
  %21 = sext i8 %20 to i32
  %22 = load ptr, ptr %8, align 8
  %23 = getelementptr inbounds i8, ptr %22, i32 1
  store ptr %23, ptr %8, align 8
  %24 = load i8, ptr %22, align 1
  %25 = sext i8 %24 to i32
  %26 = xor i32 %25, -1
  %27 = trunc i32 %26 to i8
  %28 = sext i8 %27 to i32
  %29 = and i32 %21, %28
  %30 = trunc i32 %29 to i8
  %31 = load ptr, ptr %9, align 8
  %32 = getelementptr inbounds i8, ptr %31, i32 1
  store ptr %32, ptr %9, align 8
  store i8 %30, ptr %31, align 1
  br label %33

33:                                               ; preds = %17
  %34 = load i32, ptr %10, align 4
  %35 = add nsw i32 %34, 1
  store i32 %35, ptr %10, align 4
  br label %14, !llvm.loop !9

36:                                               ; preds = %14
  %37 = load ptr, ptr %6, align 8
  ret ptr %37
}