; Function Attrs: mustprogress nofree norecurse nosync nounwind memory(readwrite, inaccessiblemem: none) uwtable
define hidden noundef ptr @_ZN23JvmtiManageCapabilities7excludeEPK17jvmtiCapabilitiesS2_PS0_(ptr nocapture noundef readonly %0, ptr nocapture noundef readonly %1, ptr noundef returned writeonly %2) local_unnamed_addr #4 align 2 {
  br label %4

4:                                                ; preds = %3, %4
  %.014 = phi i32 [ 0, %3 ], [ %12, %4 ]
  %.0813 = phi ptr [ %2, %3 ], [ %11, %4 ]
  %.0912 = phi ptr [ %1, %3 ], [ %7, %4 ]
  %.01011 = phi ptr [ %0, %3 ], [ %5, %4 ]
  %5 = getelementptr inbounds i8, ptr %.01011, i64 1
  %6 = load i8, ptr %.01011, align 1
  %7 = getelementptr inbounds i8, ptr %.0912, i64 1
  %8 = load i8, ptr %.0912, align 1
  %9 = xor i8 %8, -1
  %10 = and i8 %6, %9
  %11 = getelementptr inbounds i8, ptr %.0813, i64 1
  store i8 %10, ptr %.0813, align 1
  %12 = add nuw nsw i32 %.014, 1
  %exitcond.not = icmp eq i32 %12, 6
  br i1 %exitcond.not, label %13, label %4, !llvm.loop !9

13:                                               ; preds = %4
  ret ptr %2
}